target datalayout = "e-m:e-p270:32:32-p271:32:32-p272:64:64-i64:64-i128:128-f80:128-n8:16:32:64-S128"
target triple = "x86_64-pc-linux-gnu"

; Function Attrs: null_pointer_is_valid sspstrong uwtable
define internal zeroext i1 @call_SUBM_Parser(ptr noundef %0, ptr noundef %1, ptr noundef %2, ptr noundef %3, i16 noundef zeroext %4) #0 {
  %6 = alloca i1, align 1
  %7 = alloca ptr, align 8
  %8 = alloca ptr, align 8
  %9 = alloca ptr, align 8
  %10 = alloca ptr, align 8
  %11 = alloca i16, align 2
  %12 = alloca ptr, align 8
  %13 = alloca i32, align 4
  %14 = alloca i32, align 4
  store ptr %0, ptr %7, align 8
  store ptr %1, ptr %8, align 8
  store ptr %2, ptr %9, align 8
  store ptr %3, ptr %10, align 8
  store i16 %4, ptr %11, align 2
  call void @llvm.lifetime.start.p0(i64 8, ptr %12) #7
  %15 = load ptr, ptr %7, align 8
  store ptr %15, ptr %12, align 8
  call void @llvm.lifetime.start.p0(i64 4, ptr %13) #7
  %16 = load ptr, ptr %9, align 8
  %17 = load i32, ptr %16, align 4
  store i32 %17, ptr %13, align 4
  %18 = load ptr, ptr %8, align 8
  %19 = load i32, ptr %13, align 4
  %20 = call zeroext i1 @tvb_bytes_exist(ptr noundef %18, i32 noundef %19, i32 noundef 8)
  br i1 %20, label %22, label %21

21:                                               ; preds = %5
  store i1 true, ptr %6, align 1
  store i32 1, ptr %14, align 4
  br label %196

22:                                               ; preds = %5
  %23 = load i16, ptr %11, align 2
  %24 = zext i16 %23 to i32
  switch i32 %24, label %192 [
    i32 1, label %25
    i32 2, label %31
    i32 16, label %36
    i32 17, label %42
    i32 18, label %48
    i32 21, label %54
    i32 22, label %60
    i32 23, label %66
    i32 24, label %72
    i32 25, label %78
    i32 27, label %84
    i32 32, label %90
    i32 49, label %96
    i32 50, label %102
    i32 129, label %108
    i32 130, label %114
    i32 131, label %120
    i32 132, label %120
    i32 133, label %120
    i32 135, label %126
    i32 136, label %132
    i32 137, label %138
    i32 138, label %144
    i32 139, label %150
    i32 140, label %156
    i32 141, label %162
    i32 142, label %168
    i32 143, label %174
    i32 144, label %180
    i32 145, label %186
  ]

25:                                               ; preds = %22
  %26 = load ptr, ptr %12, align 8
  %27 = load ptr, ptr %8, align 8
  %28 = load ptr, ptr %9, align 8
  %29 = load ptr, ptr %10, align 8
  %30 = call i32 @parse_ClassPortInfo(ptr noundef %26, ptr noundef %27, ptr noundef %28, ptr noundef %29)
  store i32 %30, ptr %13, align 4
  br label %193

31:                                               ; preds = %22
  %32 = load ptr, ptr %12, align 8
  %33 = load ptr, ptr %8, align 8
  %34 = load ptr, ptr %9, align 8
  %35 = call i32 @parse_NoticesAndTraps(ptr noundef %32, ptr noundef %33, ptr noundef %34)
  store i32 %35, ptr %13, align 4
  br label %193

36:                                               ; preds = %22
  %37 = load ptr, ptr %12, align 8
  %38 = load ptr, ptr %8, align 8
  %39 = load ptr, ptr %9, align 8
  %40 = load ptr, ptr %10, align 8
  %41 = call i32 @parse_NodeDescription(ptr noundef %37, ptr noundef %38, ptr noundef %39, ptr noundef %40)
  store i32 %41, ptr %13, align 4
  br label %193

42:                                               ; preds = %22
  %43 = load ptr, ptr %12, align 8
  %44 = load ptr, ptr %8, align 8
  %45 = load ptr, ptr %9, align 8
  %46 = load ptr, ptr %10, align 8
  %47 = call i32 @parse_NodeInfo(ptr noundef %43, ptr noundef %44, ptr noundef %45, ptr noundef %46)
  store i32 %47, ptr %13, align 4
  br label %193

48:                                               ; preds = %22
  %49 = load ptr, ptr %12, align 8
  %50 = load ptr, ptr %8, align 8
  %51 = load ptr, ptr %9, align 8
  %52 = load ptr, ptr %10, align 8
  %53 = call i32 @parse_SwitchInfo(ptr noundef %49, ptr noundef %50, ptr noundef %51, ptr noundef %52)
  store i32 %53, ptr %13, align 4
  br label %193

54:                                               ; preds = %22
  %55 = load ptr, ptr %12, align 8
  %56 = load ptr, ptr %8, align 8
  %57 = load ptr, ptr %9, align 8
  %58 = load ptr, ptr %10, align 8
  %59 = call i32 @parse_PortInfo(ptr noundef %55, ptr noundef %56, ptr noundef %57, ptr noundef %58)
  store i32 %59, ptr %13, align 4
  br label %193

60:                                               ; preds = %22
  %61 = load ptr, ptr %12, align 8
  %62 = load ptr, ptr %8, align 8
  %63 = load ptr, ptr %9, align 8
  %64 = load ptr, ptr %10, align 8
  %65 = call i32 @parse_P_KeyTable(ptr noundef %61, ptr noundef %62, ptr noundef %63, ptr noundef %64)
  store i32 %65, ptr %13, align 4
  br label %193

66:                                               ; preds = %22
  %67 = load ptr, ptr %12, align 8
  %68 = load ptr, ptr %8, align 8
  %69 = load ptr, ptr %9, align 8
  %70 = load ptr, ptr %10, align 8
  %71 = call i32 @parse_SLtoSCMappingTable(ptr noundef %67, ptr noundef %68, ptr noundef %69, ptr noundef %70)
  store i32 %71, ptr %13, align 4
  br label %193

72:                                               ; preds = %22
  %73 = load ptr, ptr %12, align 8
  %74 = load ptr, ptr %8, align 8
  %75 = load ptr, ptr %9, align 8
  %76 = load ptr, ptr %10, align 8
  %77 = call i32 @parse_VLArbitrationTable(ptr noundef %73, ptr noundef %74, ptr noundef %75, ptr noundef %76)
  store i32 %77, ptr %13, align 4
  br label %193

78:                                               ; preds = %22
  %79 = load ptr, ptr %12, align 8
  %80 = load ptr, ptr %8, align 8
  %81 = load ptr, ptr %9, align 8
  %82 = load ptr, ptr %10, align 8
  %83 = call i32 @parse_LinearForwardingTable(ptr noundef %79, ptr noundef %80, ptr noundef %81, ptr noundef %82)
  store i32 %83, ptr %13, align 4
  br label %193

84:                                               ; preds = %22
  %85 = load ptr, ptr %12, align 8
  %86 = load ptr, ptr %8, align 8
  %87 = load ptr, ptr %9, align 8
  %88 = load ptr, ptr %10, align 8
  %89 = call i32 @parse_MulticastForwardingTable(ptr noundef %85, ptr noundef %86, ptr noundef %87, ptr noundef %88)
  store i32 %89, ptr %13, align 4
  br label %193

90:                                               ; preds = %22
  %91 = load ptr, ptr %12, align 8
  %92 = load ptr, ptr %8, align 8
  %93 = load ptr, ptr %9, align 8
  %94 = load ptr, ptr %10, align 8
  %95 = call i32 @parse_SMInfo(ptr noundef %91, ptr noundef %92, ptr noundef %93, ptr noundef %94)
  store i32 %95, ptr %13, align 4
  br label %193

96:                                               ; preds = %22
  %97 = load ptr, ptr %12, align 8
  %98 = load ptr, ptr %8, align 8
  %99 = load ptr, ptr %9, align 8
  %100 = load ptr, ptr %10, align 8
  %101 = call i32 @parse_LedInfo(ptr noundef %97, ptr noundef %98, ptr noundef %99, ptr noundef %100)
  store i32 %101, ptr %13, align 4
  br label %193

102:                                              ; preds = %22
  %103 = load ptr, ptr %12, align 8
  %104 = load ptr, ptr %8, align 8
  %105 = load ptr, ptr %9, align 8
  %106 = load ptr, ptr %10, align 8
  %107 = call i32 @parse_CableInfo(ptr noundef %103, ptr noundef %104, ptr noundef %105, ptr noundef %106)
  store i32 %107, ptr %13, align 4
  br label %193

108:                                              ; preds = %22
  %109 = load ptr, ptr %12, align 8
  %110 = load ptr, ptr %8, align 8
  %111 = load ptr, ptr %9, align 8
  %112 = load ptr, ptr %10, align 8
  %113 = call i32 @parse_SCtoSCMappingTable(ptr noundef %109, ptr noundef %110, ptr noundef %111, ptr noundef %112)
  store i32 %113, ptr %13, align 4
  br label %193

114:                                              ; preds = %22
  %115 = load ptr, ptr %12, align 8
  %116 = load ptr, ptr %8, align 8
  %117 = load ptr, ptr %9, align 8
  %118 = load ptr, ptr %10, align 8
  %119 = call i32 @parse_SCtoSLMappingTable(ptr noundef %115, ptr noundef %116, ptr noundef %117, ptr noundef %118)
  store i32 %119, ptr %13, align 4
  br label %193

120:                                              ; preds = %22, %22, %22
  %121 = load ptr, ptr %12, align 8
  %122 = load ptr, ptr %8, align 8
  %123 = load ptr, ptr %9, align 8
  %124 = load ptr, ptr %10, align 8
  %125 = call i32 @parse_SCtoVLxMappingTable(ptr noundef %121, ptr noundef %122, ptr noundef %123, ptr noundef %124)
  store i32 %125, ptr %13, align 4
  br label %193

126:                                              ; preds = %22
  %127 = load ptr, ptr %12, align 8
  %128 = load ptr, ptr %8, align 8
  %129 = load ptr, ptr %9, align 8
  %130 = load ptr, ptr %10, align 8
  %131 = call i32 @parse_PortStateInfo(ptr noundef %127, ptr noundef %128, ptr noundef %129, ptr noundef %130)
  store i32 %131, ptr %13, align 4
  br label %193

132:                                              ; preds = %22
  %133 = load ptr, ptr %12, align 8
  %134 = load ptr, ptr %8, align 8
  %135 = load ptr, ptr %9, align 8
  %136 = load ptr, ptr %10, align 8
  %137 = call i32 @parse_PortGroupForwardingTable(ptr noundef %133, ptr noundef %134, ptr noundef %135, ptr noundef %136)
  store i32 %137, ptr %13, align 4
  br label %193

138:                                              ; preds = %22
  %139 = load ptr, ptr %12, align 8
  %140 = load ptr, ptr %8, align 8
  %141 = load ptr, ptr %9, align 8
  %142 = load ptr, ptr %10, align 8
  %143 = call i32 @parse_PortGroupTable(ptr noundef %139, ptr noundef %140, ptr noundef %141, ptr noundef %142)
  store i32 %143, ptr %13, align 4
  br label %193

144:                                              ; preds = %22
  %145 = load ptr, ptr %12, align 8
  %146 = load ptr, ptr %8, align 8
  %147 = load ptr, ptr %9, align 8
  %148 = load ptr, ptr %10, align 8
  %149 = call i32 @parse_BufferControlTable(ptr noundef %145, ptr noundef %146, ptr noundef %147, ptr noundef %148)
  store i32 %149, ptr %13, align 4
  br label %193

150:                                              ; preds = %22
  %151 = load ptr, ptr %12, align 8
  %152 = load ptr, ptr %8, align 8
  %153 = load ptr, ptr %9, align 8
  %154 = load ptr, ptr %10, align 8
  %155 = call i32 @parse_CongestionInfo(ptr noundef %151, ptr noundef %152, ptr noundef %153, ptr noundef %154)
  store i32 %155, ptr %13, align 4
  br label %193

156:                                              ; preds = %22
  %157 = load ptr, ptr %12, align 8
  %158 = load ptr, ptr %8, align 8
  %159 = load ptr, ptr %9, align 8
  %160 = load ptr, ptr %10, align 8
  %161 = call i32 @parse_SwitchCongestionLog(ptr noundef %157, ptr noundef %158, ptr noundef %159, ptr noundef %160)
  store i32 %161, ptr %13, align 4
  br label %193

162:                                              ; preds = %22
  %163 = load ptr, ptr %12, align 8
  %164 = load ptr, ptr %8, align 8
  %165 = load ptr, ptr %9, align 8
  %166 = load ptr, ptr %10, align 8
  %167 = call i32 @parse_SwitchCongestionSetting(ptr noundef %163, ptr noundef %164, ptr noundef %165, ptr noundef %166)
  store i32 %167, ptr %13, align 4
  br label %193

168:                                              ; preds = %22
  %169 = load ptr, ptr %12, align 8
  %170 = load ptr, ptr %8, align 8
  %171 = load ptr, ptr %9, align 8
  %172 = load ptr, ptr %10, align 8
  %173 = call i32 @parse_SwitchPortCongestionSetting(ptr noundef %169, ptr noundef %170, ptr noundef %171, ptr noundef %172)
  store i32 %173, ptr %13, align 4
  br label %193

174:                                              ; preds = %22
  %175 = load ptr, ptr %12, align 8
  %176 = load ptr, ptr %8, align 8
  %177 = load ptr, ptr %9, align 8
  %178 = load ptr, ptr %10, align 8
  %179 = call i32 @parse_HFICongestionLog(ptr noundef %175, ptr noundef %176, ptr noundef %177, ptr noundef %178)
  store i32 %179, ptr %13, align 4
  br label %193

180:                                              ; preds = %22
  %181 = load ptr, ptr %12, align 8
  %182 = load ptr, ptr %8, align 8
  %183 = load ptr, ptr %9, align 8
  %184 = load ptr, ptr %10, align 8
  %185 = call i32 @parse_HFICongestionSetting(ptr noundef %181, ptr noundef %182, ptr noundef %183, ptr noundef %184)
  store i32 %185, ptr %13, align 4
  br label %193

186:                                              ; preds = %22
  %187 = load ptr, ptr %12, align 8
  %188 = load ptr, ptr %8, align 8
  %189 = load ptr, ptr %9, align 8
  %190 = load ptr, ptr %10, align 8
  %191 = call i32 @parse_HFICongestionControlTable(ptr noundef %187, ptr noundef %188, ptr noundef %189, ptr noundef %190)
  store i32 %191, ptr %13, align 4
  br label %193

192:                                              ; preds = %22
  store i1 false, ptr %6, align 1
  store i32 1, ptr %14, align 4
  br label %196

193:                                              ; preds = %186, %180, %174, %168, %162, %156, %150, %144, %138, %132, %126, %120, %114, %108, %102, %96, %90, %84, %78, %72, %66, %60, %54, %48, %42, %36, %31, %25
  %194 = load i32, ptr %13, align 4
  %195 = load ptr, ptr %9, align 8
  store i32 %194, ptr %195, align 4
  store i1 true, ptr %6, align 1
  store i32 1, ptr %14, align 4
  br label %196

196:                                              ; preds = %193, %192, %21
  call void @llvm.lifetime.end.p0(i64 4, ptr %13) #7
  call void @llvm.lifetime.end.p0(i64 8, ptr %12) #7
  %197 = load i1, ptr %6, align 1
  ret i1 %197
}