; Function Attrs: null_pointer_is_valid sspstrong uwtable
define internal fastcc noundef zeroext i1 @call_SUBM_Parser(ptr noundef %0, ptr noundef %1, ptr noundef captures(none) %2, ptr noundef readonly captures(none) %3, i16 noundef zeroext %4) unnamed_addr #0 {
  %6 = load i32, ptr %2, align 4
  %7 = tail call zeroext i1 @tvb_bytes_exist(ptr noundef %1, i32 noundef %6, i32 noundef 8)
  br i1 %7, label %8, label %66

8:                                                ; preds = %5
  switch i16 %4, label %66 [
    i16 1, label %9
    i16 2, label %11
    i16 16, label %13
    i16 17, label %15
    i16 18, label %17
    i16 21, label %19
    i16 22, label %21
    i16 23, label %23
    i16 24, label %25
    i16 25, label %27
    i16 27, label %29
    i16 32, label %31
    i16 49, label %33
    i16 50, label %35
    i16 129, label %37
    i16 130, label %39
    i16 131, label %41
    i16 132, label %41
    i16 133, label %41
    i16 135, label %43
    i16 136, label %45
    i16 137, label %47
    i16 138, label %49
    i16 139, label %51
    i16 140, label %53
    i16 141, label %55
    i16 142, label %57
    i16 143, label %59
    i16 144, label %61
    i16 145, label %63
  ]

9:                                                ; preds = %8
  %.val = load i32, ptr %2, align 4
  %10 = tail call fastcc i32 @parse_ClassPortInfo(ptr noundef %0, ptr noundef %1, i32 %.val, ptr noundef %3)
  br label %65

11:                                               ; preds = %8
  %12 = tail call fastcc i32 @parse_NoticesAndTraps(ptr noundef %0, ptr noundef %1, ptr noundef %2)
  br label %65

13:                                               ; preds = %8
  %.val119 = load i32, ptr %2, align 4
  %14 = tail call fastcc i32 @parse_NodeDescription(ptr noundef %0, ptr noundef %1, i32 %.val119, ptr noundef %3)
  br label %65

15:                                               ; preds = %8
  %.val120 = load i32, ptr %2, align 4
  %16 = tail call fastcc i32 @parse_NodeInfo(ptr noundef %0, ptr noundef %1, i32 %.val120, ptr noundef %3)
  br label %65

17:                                               ; preds = %8
  %.val121 = load i32, ptr %2, align 4
  %18 = tail call fastcc i32 @parse_SwitchInfo(ptr noundef %0, ptr noundef %1, i32 %.val121, ptr noundef %3)
  br label %65

19:                                               ; preds = %8
  %20 = tail call fastcc i32 @parse_PortInfo(ptr noundef %0, ptr noundef %1, ptr noundef %2, ptr noundef %3)
  br label %65

21:                                               ; preds = %8
  %.val122 = load i32, ptr %2, align 4
  %22 = tail call fastcc i32 @parse_P_KeyTable(ptr noundef %0, ptr noundef %1, i32 %.val122, ptr noundef %3)
  br label %65

23:                                               ; preds = %8
  %.val123 = load i32, ptr %2, align 4
  %24 = tail call fastcc i32 @parse_SLtoSCMappingTable(ptr noundef %0, ptr noundef %1, i32 %.val123, ptr noundef %3)
  br label %65

25:                                               ; preds = %8
  %.val124 = load i32, ptr %2, align 4
  %26 = tail call fastcc i32 @parse_VLArbitrationTable(ptr noundef %0, ptr noundef %1, i32 %.val124, ptr noundef %3)
  br label %65

27:                                               ; preds = %8
  %.val125 = load i32, ptr %2, align 4
  %28 = tail call fastcc i32 @parse_LinearForwardingTable(ptr noundef %0, ptr noundef %1, i32 %.val125, ptr noundef %3)
  br label %65

29:                                               ; preds = %8
  %.val126 = load i32, ptr %2, align 4
  %30 = tail call fastcc i32 @parse_MulticastForwardingTable(ptr noundef %0, ptr noundef %1, i32 %.val126, ptr noundef %3)
  br label %65

31:                                               ; preds = %8
  %.val127 = load i32, ptr %2, align 4
  %32 = tail call fastcc i32 @parse_SMInfo(ptr noundef %0, ptr noundef %1, i32 %.val127, ptr noundef %3)
  br label %65

33:                                               ; preds = %8
  %.val128 = load i32, ptr %2, align 4
  %34 = tail call fastcc i32 @parse_LedInfo(ptr noundef %0, ptr noundef %1, i32 %.val128, ptr noundef %3)
  br label %65

35:                                               ; preds = %8
  %.val129 = load i32, ptr %2, align 4
  %36 = tail call fastcc i32 @parse_CableInfo(ptr noundef %0, ptr noundef %1, i32 %.val129, ptr noundef %3)
  br label %65

37:                                               ; preds = %8
  %.val130 = load i32, ptr %2, align 4
  %38 = tail call fastcc i32 @parse_SCtoSCMappingTable(ptr noundef %0, ptr noundef %1, i32 %.val130, ptr noundef %3)
  br label %65

39:                                               ; preds = %8
  %.val131 = load i32, ptr %2, align 4
  %40 = tail call fastcc i32 @parse_SCtoSLMappingTable(ptr noundef %0, ptr noundef %1, i32 %.val131, ptr noundef %3)
  br label %65

41:                                               ; preds = %8, %8, %8
  %.val132 = load i32, ptr %2, align 4
  %42 = tail call fastcc i32 @parse_SCtoVLxMappingTable(ptr noundef %0, ptr noundef %1, i32 %.val132, ptr noundef %3)
  br label %65

43:                                               ; preds = %8
  %.val133 = load i32, ptr %2, align 4
  %44 = tail call fastcc i32 @parse_PortStateInfo(ptr noundef %0, ptr noundef %1, i32 %.val133, ptr noundef %3)
  br label %65

45:                                               ; preds = %8
  %.val134 = load i32, ptr %2, align 4
  %46 = tail call fastcc i32 @parse_PortGroupForwardingTable(ptr noundef %0, ptr noundef %1, i32 %.val134, ptr noundef %3)
  br label %65

47:                                               ; preds = %8
  %.val135 = load i32, ptr %2, align 4
  %48 = tail call fastcc i32 @parse_PortGroupTable(ptr noundef %0, ptr noundef %1, i32 %.val135, ptr noundef %3)
  br label %65

49:                                               ; preds = %8
  %.val136 = load i32, ptr %2, align 4
  %50 = tail call fastcc i32 @parse_BufferControlTable(ptr noundef %0, ptr noundef %1, i32 %.val136, ptr noundef %3)
  br label %65

51:                                               ; preds = %8
  %.val137 = load i32, ptr %2, align 4
  %52 = tail call fastcc i32 @parse_CongestionInfo(ptr noundef %0, ptr noundef %1, i32 %.val137, ptr noundef %3)
  br label %65

53:                                               ; preds = %8
  %.val138 = load i32, ptr %2, align 4
  %54 = tail call fastcc i32 @parse_SwitchCongestionLog(ptr noundef %0, ptr noundef %1, i32 %.val138, ptr noundef %3)
  br label %65

55:                                               ; preds = %8
  %.val139 = load i32, ptr %2, align 4
  %56 = tail call fastcc i32 @parse_SwitchCongestionSetting(ptr noundef %0, ptr noundef %1, i32 %.val139, ptr noundef %3)
  br label %65

57:                                               ; preds = %8
  %.val140 = load i32, ptr %2, align 4
  %58 = tail call fastcc i32 @parse_SwitchPortCongestionSetting(ptr noundef %0, ptr noundef %1, i32 %.val140, ptr noundef %3)
  br label %65

59:                                               ; preds = %8
  %.val141 = load i32, ptr %2, align 4
  %60 = tail call fastcc i32 @parse_HFICongestionLog(ptr noundef %0, ptr noundef %1, i32 %.val141, ptr noundef %3)
  br label %65

61:                                               ; preds = %8
  %.val142 = load i32, ptr %2, align 4
  %62 = tail call fastcc i32 @parse_HFICongestionSetting(ptr noundef %0, ptr noundef %1, i32 %.val142, ptr noundef %3)
  br label %65

63:                                               ; preds = %8
  %.val143 = load i32, ptr %2, align 4
  %64 = tail call fastcc i32 @parse_HFICongestionControlTable(ptr noundef %0, ptr noundef %1, i32 %.val143, ptr noundef %3)
  br label %65

65:                                               ; preds = %63, %61, %59, %57, %55, %53, %51, %49, %47, %45, %43, %41, %39, %37, %35, %33, %31, %29, %27, %25, %23, %21, %19, %17, %15, %13, %11, %9
  %.0 = phi i32 [ %64, %63 ], [ %62, %61 ], [ %60, %59 ], [ %58, %57 ], [ %56, %55 ], [ %54, %53 ], [ %52, %51 ], [ %50, %49 ], [ %48, %47 ], [ %46, %45 ], [ %44, %43 ], [ %42, %41 ], [ %40, %39 ], [ %38, %37 ], [ %36, %35 ], [ %34, %33 ], [ %32, %31 ], [ %30, %29 ], [ %28, %27 ], [ %26, %25 ], [ %24, %23 ], [ %22, %21 ], [ %20, %19 ], [ %18, %17 ], [ %16, %15 ], [ %14, %13 ], [ %12, %11 ], [ %10, %9 ]
  store i32 %.0, ptr %2, align 4
  br label %66

66:                                               ; preds = %8, %5, %65
  %.0118 = phi i1 [ true, %65 ], [ true, %5 ], [ false, %8 ]
  ret i1 %.0118
}